; Function Attrs: nounwind sspstrong uwtable
define hidden void @pm_buffer_append_varuint(ptr noundef captures(none) %0, i32 noundef %1) local_unnamed_addr #4 {
  %3 = icmp ult i32 %1, 128
  br i1 %3, label %5, label %.preheader

.preheader:                                       ; preds = %2
  %4 = getelementptr inbounds nuw i8, ptr %0, i64 8
  %.phi.trans.insert.i.i11 = getelementptr inbounds nuw i8, ptr %0, i64 16
  br label %28

5:                                                ; preds = %2
  %6 = trunc nuw nsw i32 %1 to i8
  %7 = load i64, ptr %0, align 8, !tbaa !7
  %8 = add i64 %7, 1
  %9 = getelementptr inbounds nuw i8, ptr %0, i64 8
  %10 = load i64, ptr %9, align 8, !tbaa !14
  %11 = icmp ugt i64 %8, %10
  br i1 %11, label %12, label %._crit_edge.i.i

._crit_edge.i.i:                                  ; preds = %5
  %.phi.trans.insert.i.i = getelementptr inbounds nuw i8, ptr %0, i64 16
  %.pre.i.i = load ptr, ptr %.phi.trans.insert.i.i, align 8, !tbaa !15
  br label %25

12:                                               ; preds = %5
  %13 = icmp eq i64 %10, 0
  br i1 %13, label %14, label %15

14:                                               ; preds = %12
  store i64 1, ptr %9, align 8, !tbaa !14
  br label %15

15:                                               ; preds = %14, %12
  %.promoted.i.i.i = phi i64 [ 1, %14 ], [ %10, %12 ]
  %16 = icmp ugt i64 %8, %.promoted.i.i.i
  br i1 %16, label %.lr.ph.i.i.i, label %20

.lr.ph.i.i.i:                                     ; preds = %15, %.lr.ph.i.i.i
  %17 = phi i64 [ %18, %.lr.ph.i.i.i ], [ %.promoted.i.i.i, %15 ]
  %18 = shl i64 %17, 1
  %19 = icmp ugt i64 %8, %18
  br i1 %19, label %.lr.ph.i.i.i, label %._crit_edge.i.i.i, !llvm.loop !16

._crit_edge.i.i.i:                                ; preds = %.lr.ph.i.i.i
  store i64 %18, ptr %9, align 8, !tbaa !14
  br label %20

20:                                               ; preds = %._crit_edge.i.i.i, %15
  %.lcssa.i.i.i = phi i64 [ %18, %._crit_edge.i.i.i ], [ %.promoted.i.i.i, %15 ]
  %21 = getelementptr inbounds nuw i8, ptr %0, i64 16
  %22 = load ptr, ptr %21, align 8, !tbaa !15
  %23 = tail call ptr @realloc(ptr noundef %22, i64 noundef %.lcssa.i.i.i) #18
  store ptr %23, ptr %21, align 8, !tbaa !15
  %24 = icmp eq ptr %23, null
  br i1 %24, label %pm_buffer_append_byte.exit, label %25

25:                                               ; preds = %20, %._crit_edge.i.i
  %26 = phi ptr [ %.pre.i.i, %._crit_edge.i.i ], [ %23, %20 ]
  store i64 %8, ptr %0, align 8, !tbaa !7
  %27 = getelementptr i8, ptr %26, i64 %7
  store i8 %6, ptr %27, align 1
  br label %pm_buffer_append_byte.exit

28:                                               ; preds = %.preheader, %pm_buffer_append_byte.exit17
  %.028 = phi i32 [ %1, %.preheader ], [ %50, %pm_buffer_append_byte.exit17 ]
  %29 = trunc i32 %.028 to i8
  %30 = or i8 %29, -128
  %31 = load i64, ptr %0, align 8, !tbaa !7
  %32 = add i64 %31, 1
  %33 = load i64, ptr %4, align 8, !tbaa !14
  %34 = icmp ugt i64 %32, %33
  br i1 %34, label %35, label %._crit_edge.i.i10

._crit_edge.i.i10:                                ; preds = %28
  %.pre.i.i12 = load ptr, ptr %.phi.trans.insert.i.i11, align 8, !tbaa !15
  br label %47

35:                                               ; preds = %28
  %36 = icmp eq i64 %33, 0
  br i1 %36, label %37, label %38

37:                                               ; preds = %35
  store i64 1, ptr %4, align 8, !tbaa !14
  br label %38

38:                                               ; preds = %37, %35
  %.promoted.i.i.i13 = phi i64 [ 1, %37 ], [ %33, %35 ]
  %39 = icmp ugt i64 %32, %.promoted.i.i.i13
  br i1 %39, label %.lr.ph.i.i.i15, label %43

.lr.ph.i.i.i15:                                   ; preds = %38, %.lr.ph.i.i.i15
  %40 = phi i64 [ %41, %.lr.ph.i.i.i15 ], [ %.promoted.i.i.i13, %38 ]
  %41 = shl i64 %40, 1
  %42 = icmp ugt i64 %32, %41
  br i1 %42, label %.lr.ph.i.i.i15, label %._crit_edge.i.i.i16, !llvm.loop !16

._crit_edge.i.i.i16:                              ; preds = %.lr.ph.i.i.i15
  store i64 %41, ptr %4, align 8, !tbaa !14
  br label %43

43:                                               ; preds = %._crit_edge.i.i.i16, %38
  %.lcssa.i.i.i14 = phi i64 [ %41, %._crit_edge.i.i.i16 ], [ %.promoted.i.i.i13, %38 ]
  %44 = load ptr, ptr %.phi.trans.insert.i.i11, align 8, !tbaa !15
  %45 = tail call ptr @realloc(ptr noundef %44, i64 noundef %.lcssa.i.i.i14) #18
  store ptr %45, ptr %.phi.trans.insert.i.i11, align 8, !tbaa !15
  %46 = icmp eq ptr %45, null
  br i1 %46, label %pm_buffer_append_byte.exit17, label %47

47:                                               ; preds = %43, %._crit_edge.i.i10
  %48 = phi ptr [ %.pre.i.i12, %._crit_edge.i.i10 ], [ %45, %43 ]
  store i64 %32, ptr %0, align 8, !tbaa !7
  %49 = getelementptr i8, ptr %48, i64 %31
  store i8 %30, ptr %49, align 1
  br label %pm_buffer_append_byte.exit17

pm_buffer_append_byte.exit17:                     ; preds = %43, %47
  %50 = lshr i32 %.028, 7
  %51 = icmp ugt i32 %.028, 16383
  br i1 %51, label %28, label %52, !llvm.loop !18

52:                                               ; preds = %pm_buffer_append_byte.exit17
  %53 = trunc nuw nsw i32 %50 to i8
  %54 = load i64, ptr %0, align 8, !tbaa !7
  %55 = add i64 %54, 1
  %56 = load i64, ptr %4, align 8, !tbaa !14
  %57 = icmp ugt i64 %55, %56
  br i1 %57, label %58, label %._crit_edge.i.i18

._crit_edge.i.i18:                                ; preds = %52
  %.pre.i.i20 = load ptr, ptr %.phi.trans.insert.i.i11, align 8, !tbaa !15
  br label %70

58:                                               ; preds = %52
  %59 = icmp eq i64 %56, 0
  br i1 %59, label %60, label %61

60:                                               ; preds = %58
  store i64 1, ptr %4, align 8, !tbaa !14
  br label %61

61:                                               ; preds = %60, %58
  %.promoted.i.i.i21 = phi i64 [ 1, %60 ], [ %56, %58 ]
  %62 = icmp ugt i64 %55, %.promoted.i.i.i21
  br i1 %62, label %.lr.ph.i.i.i23, label %66

.lr.ph.i.i.i23:                                   ; preds = %61, %.lr.ph.i.i.i23
  %63 = phi i64 [ %64, %.lr.ph.i.i.i23 ], [ %.promoted.i.i.i21, %61 ]
  %64 = shl i64 %63, 1
  %65 = icmp ugt i64 %55, %64
  br i1 %65, label %.lr.ph.i.i.i23, label %._crit_edge.i.i.i24, !llvm.loop !16

._crit_edge.i.i.i24:                              ; preds = %.lr.ph.i.i.i23
  store i64 %64, ptr %4, align 8, !tbaa !14
  br label %66

66:                                               ; preds = %._crit_edge.i.i.i24, %61
  %.lcssa.i.i.i22 = phi i64 [ %64, %._crit_edge.i.i.i24 ], [ %.promoted.i.i.i21, %61 ]
  %67 = load ptr, ptr %.phi.trans.insert.i.i11, align 8, !tbaa !15
  %68 = tail call ptr @realloc(ptr noundef %67, i64 noundef %.lcssa.i.i.i22) #18
  store ptr %68, ptr %.phi.trans.insert.i.i11, align 8, !tbaa !15
  %69 = icmp eq ptr %68, null
  br i1 %69, label %pm_buffer_append_byte.exit, label %70

70:                                               ; preds = %66, %._crit_edge.i.i18
  %71 = phi ptr [ %.pre.i.i20, %._crit_edge.i.i18 ], [ %68, %66 ]
  store i64 %55, ptr %0, align 8, !tbaa !7
  %72 = getelementptr i8, ptr %71, i64 %54
  store i8 %53, ptr %72, align 1
  br label %pm_buffer_append_byte.exit

pm_buffer_append_byte.exit:                       ; preds = %70, %66, %25, %20
  ret void
}